target datalayout = "e-m:e-p270:32:32-p271:32:32-p272:64:64-i64:64-i128:128-f80:128-n8:16:32:64-S128"
target triple = "x86_64-pc-linux-gnu"

%"class.pxrInternal_v0_24__pxrReserved__::UsdImaging_AdapterManager" = type { %"class.tbb::detail::d1::concurrent_unordered_map", %"class.tbb::detail::d1::concurrent_unordered_map.8", %"class.tbb::detail::d1::concurrent_unordered_map.12", %"class.std::vector" }
%"class.tbb::detail::d1::concurrent_unordered_map" = type { %"class.tbb::detail::d1::concurrent_unordered_base" }
%"class.tbb::detail::d1::concurrent_unordered_base" = type { %"struct.std::atomic", %"struct.std::atomic", float, %"class.tbb::detail::d1::list_node", %"class.tbb::detail::d1::concurrent_unordered_base<tbb::detail::d1::concurrent_unordered_map_traits<pxrInternal_v0_24__pxrReserved__::TfToken, pxrInternal_v0_24__pxrReserved__::UsdImaging_AdapterManager::_WrappedPrimAdapterEntry, pxrInternal_v0_24__pxrReserved__::TfHash, std::equal_to<pxrInternal_v0_24__pxrReserved__::TfToken>, tbb::detail::d1::tbb_allocator<std::pair<const pxrInternal_v0_24__pxrReserved__::TfToken, pxrInternal_v0_24__pxrReserved__::UsdImaging_AdapterManager::_WrappedPrimAdapterEntry>>, false>>::unordered_segment_table" }
%"struct.std::atomic" = type { %"struct.std::__atomic_base" }
%"struct.std::__atomic_base" = type { i64 }
%"class.tbb::detail::d1::list_node" = type { %"struct.std::atomic.0", i64 }
%"struct.std::atomic.0" = type { %"struct.std::__atomic_base.1" }
%"struct.std::__atomic_base.1" = type { ptr }
%"class.tbb::detail::d1::concurrent_unordered_base<tbb::detail::d1::concurrent_unordered_map_traits<pxrInternal_v0_24__pxrReserved__::TfToken, pxrInternal_v0_24__pxrReserved__::UsdImaging_AdapterManager::_WrappedPrimAdapterEntry, pxrInternal_v0_24__pxrReserved__::TfHash, std::equal_to<pxrInternal_v0_24__pxrReserved__::TfToken>, tbb::detail::d1::tbb_allocator<std::pair<const pxrInternal_v0_24__pxrReserved__::TfToken, pxrInternal_v0_24__pxrReserved__::UsdImaging_AdapterManager::_WrappedPrimAdapterEntry>>, false>>::unordered_segment_table" = type { %"class.tbb::detail::d1::segment_table.base", [7 x i8] }
%"class.tbb::detail::d1::segment_table.base" = type <{ ptr, [8 x i8], %"struct.std::atomic.2", [63 x %"struct.std::atomic.4"], %"struct.std::atomic", %"struct.std::atomic", %"struct.std::atomic.6" }>
%"struct.std::atomic.2" = type { %"struct.std::__atomic_base.3" }
%"struct.std::__atomic_base.3" = type { ptr }
%"struct.std::atomic.4" = type { %"struct.std::__atomic_base.5" }
%"struct.std::__atomic_base.5" = type { ptr }
%"struct.std::atomic.6" = type { %"struct.std::__atomic_base.7" }
%"struct.std::__atomic_base.7" = type { i8 }
%"class.tbb::detail::d1::concurrent_unordered_map.8" = type { %"class.tbb::detail::d1::concurrent_unordered_base.9" }
%"class.tbb::detail::d1::concurrent_unordered_base.9" = type { %"struct.std::atomic", %"struct.std::atomic", float, %"class.tbb::detail::d1::list_node", %"class.tbb::detail::d1::concurrent_unordered_base<tbb::detail::d1::concurrent_unordered_map_traits<pxrInternal_v0_24__pxrReserved__::TfToken, std::shared_ptr<pxrInternal_v0_24__pxrReserved__::UsdImagingAPISchemaAdapter>, pxrInternal_v0_24__pxrReserved__::TfHash, std::equal_to<pxrInternal_v0_24__pxrReserved__::TfToken>, tbb::detail::d1::tbb_allocator<std::pair<const pxrInternal_v0_24__pxrReserved__::TfToken, std::shared_ptr<pxrInternal_v0_24__pxrReserved__::UsdImagingAPISchemaAdapter>>>, false>>::unordered_segment_table" }
%"class.tbb::detail::d1::concurrent_unordered_base<tbb::detail::d1::concurrent_unordered_map_traits<pxrInternal_v0_24__pxrReserved__::TfToken, std::shared_ptr<pxrInternal_v0_24__pxrReserved__::UsdImagingAPISchemaAdapter>, pxrInternal_v0_24__pxrReserved__::TfHash, std::equal_to<pxrInternal_v0_24__pxrReserved__::TfToken>, tbb::detail::d1::tbb_allocator<std::pair<const pxrInternal_v0_24__pxrReserved__::TfToken, std::shared_ptr<pxrInternal_v0_24__pxrReserved__::UsdImagingAPISchemaAdapter>>>, false>>::unordered_segment_table" = type { %"class.tbb::detail::d1::segment_table.base.11", [7 x i8] }
%"class.tbb::detail::d1::segment_table.base.11" = type <{ ptr, [8 x i8], %"struct.std::atomic.2", [63 x %"struct.std::atomic.4"], %"struct.std::atomic", %"struct.std::atomic", %"struct.std::atomic.6" }>
%"class.tbb::detail::d1::concurrent_unordered_map.12" = type { %"class.tbb::detail::d1::concurrent_unordered_base.13" }
%"class.tbb::detail::d1::concurrent_unordered_base.13" = type { %"struct.std::atomic", %"struct.std::atomic", float, %"class.tbb::detail::d1::list_node", %"class.tbb::detail::d1::concurrent_unordered_base<tbb::detail::d1::concurrent_unordered_map_traits<const pxrInternal_v0_24__pxrReserved__::UsdPrimTypeInfo *, pxrInternal_v0_24__pxrReserved__::UsdImaging_AdapterManager::AdaptersEntry, pxrInternal_v0_24__pxrReserved__::TfHash, std::equal_to<const pxrInternal_v0_24__pxrReserved__::UsdPrimTypeInfo *>, tbb::detail::d1::tbb_allocator<std::pair<const pxrInternal_v0_24__pxrReserved__::UsdPrimTypeInfo *const, pxrInternal_v0_24__pxrReserved__::UsdImaging_AdapterManager::AdaptersEntry>>, false>>::unordered_segment_table" }
%"class.tbb::detail::d1::concurrent_unordered_base<tbb::detail::d1::concurrent_unordered_map_traits<const pxrInternal_v0_24__pxrReserved__::UsdPrimTypeInfo *, pxrInternal_v0_24__pxrReserved__::UsdImaging_AdapterManager::AdaptersEntry, pxrInternal_v0_24__pxrReserved__::TfHash, std::equal_to<const pxrInternal_v0_24__pxrReserved__::UsdPrimTypeInfo *>, tbb::detail::d1::tbb_allocator<std::pair<const pxrInternal_v0_24__pxrReserved__::UsdPrimTypeInfo *const, pxrInternal_v0_24__pxrReserved__::UsdImaging_AdapterManager::AdaptersEntry>>, false>>::unordered_segment_table" = type { %"class.tbb::detail::d1::segment_table.base.15", [7 x i8] }
%"class.tbb::detail::d1::segment_table.base.15" = type <{ ptr, [8 x i8], %"struct.std::atomic.2", [63 x %"struct.std::atomic.4"], %"struct.std::atomic", %"struct.std::atomic", %"struct.std::atomic.6" }>
%"class.std::vector" = type { %"struct.std::_Vector_base" }
%"struct.std::_Vector_base" = type { %"struct.std::_Vector_base<std::shared_ptr<pxrInternal_v0_24__pxrReserved__::UsdImagingAPISchemaAdapter>, std::allocator<std::shared_ptr<pxrInternal_v0_24__pxrReserved__::UsdImagingAPISchemaAdapter>>>::_Vector_impl" }
%"struct.std::_Vector_base<std::shared_ptr<pxrInternal_v0_24__pxrReserved__::UsdImagingAPISchemaAdapter>, std::allocator<std::shared_ptr<pxrInternal_v0_24__pxrReserved__::UsdImagingAPISchemaAdapter>>>::_Vector_impl" = type { %"struct.std::_Vector_base<std::shared_ptr<pxrInternal_v0_24__pxrReserved__::UsdImagingAPISchemaAdapter>, std::allocator<std::shared_ptr<pxrInternal_v0_24__pxrReserved__::UsdImagingAPISchemaAdapter>>>::_Vector_impl_data" }
%"struct.std::_Vector_base<std::shared_ptr<pxrInternal_v0_24__pxrReserved__::UsdImagingAPISchemaAdapter>, std::allocator<std::shared_ptr<pxrInternal_v0_24__pxrReserved__::UsdImagingAPISchemaAdapter>>>::_Vector_impl_data" = type { ptr, ptr, ptr }

; Function Attrs: mustprogress nounwind uwtable
define linkonce_odr void @_ZN3tbb6detail2d125concurrent_unordered_baseINS1_31concurrent_unordered_map_traitsIPKN32pxrInternal_v0_24__pxrReserved__15UsdPrimTypeInfoENS4_25UsdImaging_AdapterManager13AdaptersEntryENS4_6TfHashESt8equal_toIS7_ENS1_13tbb_allocatorISt4pairIKS7_S9_EEELb0EEEE5clearEv(ptr noundef nonnull align 8 dereferenceable(592) %0) #2 comdat align 2 personality ptr @__gxx_personality_v0 {
  %2 = alloca ptr, align 8
  store ptr %0, ptr %2, align 8
  %3 = load ptr, ptr %2, align 8
  invoke void @_ZN3tbb6detail2d125concurrent_unordered_baseINS1_31concurrent_unordered_map_traitsIPKN32pxrInternal_v0_24__pxrReserved__15UsdPrimTypeInfoENS4_25UsdImaging_AdapterManager13AdaptersEntryENS4_6TfHashESt8equal_toIS7_ENS1_13tbb_allocatorISt4pairIKS7_S9_EEELb0EEEE14internal_clearEv(ptr noundef nonnull align 8 dereferenceable(592) %3)
          to label %4 unwind label %5

4:                                                ; preds = %1
  ret void

5:                                                ; preds = %1
  %6 = landingpad { ptr, i32 }
          catch ptr null
  %7 = extractvalue { ptr, i32 } %6, 0
  call void @__clang_call_terminate(ptr %7) #14
  unreachable
}

; Function Attrs: mustprogress nounwind uwtable
define linkonce_odr void @_ZN3tbb6detail2d125concurrent_unordered_baseINS1_31concurrent_unordered_map_traitsIN32pxrInternal_v0_24__pxrReserved__7TfTokenESt10shared_ptrINS4_26UsdImagingAPISchemaAdapterEENS4_6TfHashESt8equal_toIS5_ENS1_13tbb_allocatorISt4pairIKS5_S8_EEELb0EEEE5clearEv(ptr noundef nonnull align 8 dereferenceable(592) %0) #2 comdat align 2 personality ptr @__gxx_personality_v0 {
  %2 = alloca ptr, align 8
  store ptr %0, ptr %2, align 8
  %3 = load ptr, ptr %2, align 8
  invoke void @_ZN3tbb6detail2d125concurrent_unordered_baseINS1_31concurrent_unordered_map_traitsIN32pxrInternal_v0_24__pxrReserved__7TfTokenESt10shared_ptrINS4_26UsdImagingAPISchemaAdapterEENS4_6TfHashESt8equal_toIS5_ENS1_13tbb_allocatorISt4pairIKS5_S8_EEELb0EEEE14internal_clearEv(ptr noundef nonnull align 8 dereferenceable(592) %3)
          to label %4 unwind label %5

4:                                                ; preds = %1
  ret void

5:                                                ; preds = %1
  %6 = landingpad { ptr, i32 }
          catch ptr null
  %7 = extractvalue { ptr, i32 } %6, 0
  call void @__clang_call_terminate(ptr %7) #14
  unreachable
}

; Function Attrs: mustprogress nounwind uwtable
define linkonce_odr void @_ZN3tbb6detail2d125concurrent_unordered_baseINS1_31concurrent_unordered_map_traitsIN32pxrInternal_v0_24__pxrReserved__7TfTokenENS4_25UsdImaging_AdapterManager24_WrappedPrimAdapterEntryENS4_6TfHashESt8equal_toIS5_ENS1_13tbb_allocatorISt4pairIKS5_S7_EEELb0EEEE5clearEv(ptr noundef nonnull align 8 dereferenceable(592) %0) #2 comdat align 2 personality ptr @__gxx_personality_v0 {
  %2 = alloca ptr, align 8
  store ptr %0, ptr %2, align 8
  %3 = load ptr, ptr %2, align 8
  invoke void @_ZN3tbb6detail2d125concurrent_unordered_baseINS1_31concurrent_unordered_map_traitsIN32pxrInternal_v0_24__pxrReserved__7TfTokenENS4_25UsdImaging_AdapterManager24_WrappedPrimAdapterEntryENS4_6TfHashESt8equal_toIS5_ENS1_13tbb_allocatorISt4pairIKS5_S7_EEELb0EEEE14internal_clearEv(ptr noundef nonnull align 8 dereferenceable(592) %3)
          to label %4 unwind label %5

4:                                                ; preds = %1
  ret void

5:                                                ; preds = %1
  %6 = landingpad { ptr, i32 }
          catch ptr null
  %7 = extractvalue { ptr, i32 } %6, 0
  call void @__clang_call_terminate(ptr %7) #14
  unreachable
}

; Function Attrs: mustprogress nounwind uwtable
define void @_ZN32pxrInternal_v0_24__pxrReserved__25UsdImaging_AdapterManager5ResetEv(ptr noundef nonnull align 8 dereferenceable(1800) %0) #2 align 2 {
  %2 = alloca ptr, align 8
  store ptr %0, ptr %2, align 8
  %3 = load ptr, ptr %2, align 8
  %4 = getelementptr inbounds nuw %"class.pxrInternal_v0_24__pxrReserved__::UsdImaging_AdapterManager", ptr %3, i32 0, i32 0
  call void @_ZN3tbb6detail2d125concurrent_unordered_baseINS1_31concurrent_unordered_map_traitsIN32pxrInternal_v0_24__pxrReserved__7TfTokenENS4_25UsdImaging_AdapterManager24_WrappedPrimAdapterEntryENS4_6TfHashESt8equal_toIS5_ENS1_13tbb_allocatorISt4pairIKS5_S7_EEELb0EEEE5clearEv(ptr noundef nonnull align 8 dereferenceable(592) %4) #3
  %5 = getelementptr inbounds nuw %"class.pxrInternal_v0_24__pxrReserved__::UsdImaging_AdapterManager", ptr %3, i32 0, i32 1
  call void @_ZN3tbb6detail2d125concurrent_unordered_baseINS1_31concurrent_unordered_map_traitsIN32pxrInternal_v0_24__pxrReserved__7TfTokenESt10shared_ptrINS4_26UsdImagingAPISchemaAdapterEENS4_6TfHashESt8equal_toIS5_ENS1_13tbb_allocatorISt4pairIKS5_S8_EEELb0EEEE5clearEv(ptr noundef nonnull align 8 dereferenceable(592) %5) #3
  %6 = getelementptr inbounds nuw %"class.pxrInternal_v0_24__pxrReserved__::UsdImaging_AdapterManager", ptr %3, i32 0, i32 2
  call void @_ZN3tbb6detail2d125concurrent_unordered_baseINS1_31concurrent_unordered_map_traitsIPKN32pxrInternal_v0_24__pxrReserved__15UsdPrimTypeInfoENS4_25UsdImaging_AdapterManager13AdaptersEntryENS4_6TfHashESt8equal_toIS7_ENS1_13tbb_allocatorISt4pairIKS7_S9_EEELb0EEEE5clearEv(ptr noundef nonnull align 8 dereferenceable(592) %6) #3
  ret void
}