; Function Attrs: mustprogress nounwind uwtable
define void @_ZN32pxrInternal_v0_24__pxrReserved__25UsdImaging_AdapterManager5ResetEv(ptr noundef nonnull align 8 dereferenceable(1800) %0) local_unnamed_addr #2 align 2 personality ptr @__gxx_personality_v0 {
  invoke void @_ZN3tbb6detail2d125concurrent_unordered_baseINS1_31concurrent_unordered_map_traitsIN32pxrInternal_v0_24__pxrReserved__7TfTokenENS4_25UsdImaging_AdapterManager24_WrappedPrimAdapterEntryENS4_6TfHashESt8equal_toIS5_ENS1_13tbb_allocatorISt4pairIKS5_S7_EEELb0EEEE14internal_clearEv(ptr noundef nonnull align 8 dereferenceable(592) %0)
          to label %_ZN3tbb6detail2d125concurrent_unordered_baseINS1_31concurrent_unordered_map_traitsIN32pxrInternal_v0_24__pxrReserved__7TfTokenENS4_25UsdImaging_AdapterManager24_WrappedPrimAdapterEntryENS4_6TfHashESt8equal_toIS5_ENS1_13tbb_allocatorISt4pairIKS5_S7_EEELb0EEEE5clearEv.exit unwind label %2

2:                                                ; preds = %1
  %3 = landingpad { ptr, i32 }
          catch ptr null
  %4 = extractvalue { ptr, i32 } %3, 0
  tail call void @__clang_call_terminate(ptr %4) #21
  unreachable

_ZN3tbb6detail2d125concurrent_unordered_baseINS1_31concurrent_unordered_map_traitsIN32pxrInternal_v0_24__pxrReserved__7TfTokenENS4_25UsdImaging_AdapterManager24_WrappedPrimAdapterEntryENS4_6TfHashESt8equal_toIS5_ENS1_13tbb_allocatorISt4pairIKS5_S7_EEELb0EEEE5clearEv.exit: ; preds = %1
  %5 = getelementptr inbounds nuw i8, ptr %0, i64 592
  invoke void @_ZN3tbb6detail2d125concurrent_unordered_baseINS1_31concurrent_unordered_map_traitsIN32pxrInternal_v0_24__pxrReserved__7TfTokenESt10shared_ptrINS4_26UsdImagingAPISchemaAdapterEENS4_6TfHashESt8equal_toIS5_ENS1_13tbb_allocatorISt4pairIKS5_S8_EEELb0EEEE14internal_clearEv(ptr noundef nonnull align 8 dereferenceable(592) %5)
          to label %_ZN3tbb6detail2d125concurrent_unordered_baseINS1_31concurrent_unordered_map_traitsIN32pxrInternal_v0_24__pxrReserved__7TfTokenESt10shared_ptrINS4_26UsdImagingAPISchemaAdapterEENS4_6TfHashESt8equal_toIS5_ENS1_13tbb_allocatorISt4pairIKS5_S8_EEELb0EEEE5clearEv.exit unwind label %6

6:                                                ; preds = %_ZN3tbb6detail2d125concurrent_unordered_baseINS1_31concurrent_unordered_map_traitsIN32pxrInternal_v0_24__pxrReserved__7TfTokenENS4_25UsdImaging_AdapterManager24_WrappedPrimAdapterEntryENS4_6TfHashESt8equal_toIS5_ENS1_13tbb_allocatorISt4pairIKS5_S7_EEELb0EEEE5clearEv.exit
  %7 = landingpad { ptr, i32 }
          catch ptr null
  %8 = extractvalue { ptr, i32 } %7, 0
  tail call void @__clang_call_terminate(ptr %8) #21
  unreachable

_ZN3tbb6detail2d125concurrent_unordered_baseINS1_31concurrent_unordered_map_traitsIN32pxrInternal_v0_24__pxrReserved__7TfTokenESt10shared_ptrINS4_26UsdImagingAPISchemaAdapterEENS4_6TfHashESt8equal_toIS5_ENS1_13tbb_allocatorISt4pairIKS5_S8_EEELb0EEEE5clearEv.exit: ; preds = %_ZN3tbb6detail2d125concurrent_unordered_baseINS1_31concurrent_unordered_map_traitsIN32pxrInternal_v0_24__pxrReserved__7TfTokenENS4_25UsdImaging_AdapterManager24_WrappedPrimAdapterEntryENS4_6TfHashESt8equal_toIS5_ENS1_13tbb_allocatorISt4pairIKS5_S7_EEELb0EEEE5clearEv.exit
  %9 = getelementptr inbounds nuw i8, ptr %0, i64 1184
  invoke void @_ZN3tbb6detail2d125concurrent_unordered_baseINS1_31concurrent_unordered_map_traitsIPKN32pxrInternal_v0_24__pxrReserved__15UsdPrimTypeInfoENS4_25UsdImaging_AdapterManager13AdaptersEntryENS4_6TfHashESt8equal_toIS7_ENS1_13tbb_allocatorISt4pairIKS7_S9_EEELb0EEEE14internal_clearEv(ptr noundef nonnull align 8 dereferenceable(592) %9)
          to label %_ZN3tbb6detail2d125concurrent_unordered_baseINS1_31concurrent_unordered_map_traitsIPKN32pxrInternal_v0_24__pxrReserved__15UsdPrimTypeInfoENS4_25UsdImaging_AdapterManager13AdaptersEntryENS4_6TfHashESt8equal_toIS7_ENS1_13tbb_allocatorISt4pairIKS7_S9_EEELb0EEEE5clearEv.exit unwind label %10

10:                                               ; preds = %_ZN3tbb6detail2d125concurrent_unordered_baseINS1_31concurrent_unordered_map_traitsIN32pxrInternal_v0_24__pxrReserved__7TfTokenESt10shared_ptrINS4_26UsdImagingAPISchemaAdapterEENS4_6TfHashESt8equal_toIS5_ENS1_13tbb_allocatorISt4pairIKS5_S8_EEELb0EEEE5clearEv.exit
  %11 = landingpad { ptr, i32 }
          catch ptr null
  %12 = extractvalue { ptr, i32 } %11, 0
  tail call void @__clang_call_terminate(ptr %12) #21
  unreachable

_ZN3tbb6detail2d125concurrent_unordered_baseINS1_31concurrent_unordered_map_traitsIPKN32pxrInternal_v0_24__pxrReserved__15UsdPrimTypeInfoENS4_25UsdImaging_AdapterManager13AdaptersEntryENS4_6TfHashESt8equal_toIS7_ENS1_13tbb_allocatorISt4pairIKS7_S9_EEELb0EEEE5clearEv.exit: ; preds = %_ZN3tbb6detail2d125concurrent_unordered_baseINS1_31concurrent_unordered_map_traitsIN32pxrInternal_v0_24__pxrReserved__7TfTokenESt10shared_ptrINS4_26UsdImagingAPISchemaAdapterEENS4_6TfHashESt8equal_toIS5_ENS1_13tbb_allocatorISt4pairIKS5_S8_EEELb0EEEE5clearEv.exit
  ret void
}